; Function Attrs: mustprogress uwtable
define dso_local noundef nonnull ptr @_ZN11SafeOpFlags12get_lhs_typeEv(ptr noundef nonnull readonly align 4 captures(none) dereferenceable(8) %0) local_unnamed_addr #7 align 2 {
  %2 = load i8, ptr %0, align 4, !tbaa !21, !range !28, !noundef !29
  %3 = trunc nuw i8 %2 to i1
  %4 = getelementptr inbounds nuw i8, ptr %0, i64 4
  %5 = load i32, ptr %4, align 4, !tbaa !27
  br i1 %3, label %6, label %8

6:                                                ; preds = %1
  %7 = icmp ult i32 %5, 5
  br i1 %7, label %switch.lookup, label %_ZN11SafeOpFlags13flags_to_typeEb10SafeOpSize.exit

8:                                                ; preds = %1
  %9 = icmp ult i32 %5, 4
  br i1 %9, label %switch.lookup2, label %_ZN11SafeOpFlags13flags_to_typeEb10SafeOpSize.exit

switch.lookup:                                    ; preds = %6
  %10 = zext nneg i32 %5 to i64
  %switch.gep = getelementptr inbounds nuw [5 x i32], ptr @switch.table._ZN11SafeOpFlags12get_rhs_typeEv, i64 0, i64 %10
  %switch.load = load i32, ptr %switch.gep, align 4
  br label %_ZN11SafeOpFlags13flags_to_typeEb10SafeOpSize.exit

switch.lookup2:                                   ; preds = %8
  %11 = zext nneg i32 %5 to i64
  %switch.gep3 = getelementptr inbounds nuw [4 x i32], ptr @switch.table._ZN11SafeOpFlags12get_rhs_typeEv.3, i64 0, i64 %11
  %switch.load4 = load i32, ptr %switch.gep3, align 4
  br label %_ZN11SafeOpFlags13flags_to_typeEb10SafeOpSize.exit

_ZN11SafeOpFlags13flags_to_typeEb10SafeOpSize.exit: ; preds = %6, %8, %switch.lookup2, %switch.lookup
  %.0.i = phi i32 [ %switch.load, %switch.lookup ], [ %switch.load4, %switch.lookup2 ], [ 2, %8 ], [ 2, %6 ]
  %12 = tail call noundef nonnull align 8 dereferenceable(136) ptr @_ZN4Type15get_simple_typeE11eSimpleType(i32 noundef %.0.i)
  ret ptr %12
}